   1               		.file	"launch_effect.c"
   2               	__SREG__ = 0x3f
   3               	__SP_H__ = 0x3e
   4               	__SP_L__ = 0x3d
   5               	__CCP__ = 0x34
   6               	__tmp_reg__ = 0
   7               	__zero_reg__ = 1
   8               		.global __do_copy_data
   9               		.global __do_clear_bss
  10               		.text
  11               	.Ltext0:
  12               		.cfi_sections	.debug_frame
  13               		.data
  14               	.LC0:
  15 0000 5447 00   		.string	"TG"
  16               		.text
  17               	.global	launch_effect
  19               	launch_effect:
  20               	.LFB1:
  21               		.file 1 "launch_effect.c"
   1:launch_effect.c **** #include <avr/pgmspace.h>
   2:launch_effect.c **** 
   3:launch_effect.c **** #include "launch_effect.h"
   4:launch_effect.c **** #include "effect.h"
   5:launch_effect.c **** #include "draw.h"
   6:launch_effect.c **** #include "gameoflife.h"
   7:launch_effect.c **** #include "debug.h"
   8:launch_effect.c **** #include "util.h"
   9:launch_effect.c **** 
  10:launch_effect.c **** void launch_effect (int effect)
  11:launch_effect.c **** {
  22               		.loc 1 11 0
  23               		.cfi_startproc
  24               	.LVL0:
  25 0000 CF92      		push r12
  26               	.LCFI0:
  27               		.cfi_def_cfa_offset 3
  28               		.cfi_offset 12, -2
  29 0002 DF92      		push r13
  30               	.LCFI1:
  31               		.cfi_def_cfa_offset 4
  32               		.cfi_offset 13, -3
  33 0004 EF92      		push r14
  34               	.LCFI2:
  35               		.cfi_def_cfa_offset 5
  36               		.cfi_offset 14, -4
  37 0006 FF92      		push r15
  38               	.LCFI3:
  39               		.cfi_def_cfa_offset 6
  40               		.cfi_offset 15, -5
  41 0008 0F93      		push r16
  42               	.LCFI4:
  43               		.cfi_def_cfa_offset 7
  44               		.cfi_offset 16, -6
  45 000a 1F93      		push r17
  46               	.LCFI5:
  47               		.cfi_def_cfa_offset 8
  48               		.cfi_offset 17, -7
  49 000c CF93      		push r28
  50               	.LCFI6:
  51               		.cfi_def_cfa_offset 9
  52               		.cfi_offset 28, -8
  53 000e DF93      		push r29
  54               	.LCFI7:
  55               		.cfi_def_cfa_offset 10
  56               		.cfi_offset 29, -9
  57               	/* prologue: function */
  58               	/* frame size = 0 */
  59               	/* stack size = 8 */
  60               	.L__stack_usage = 8
  61 0010 EC01      		movw r28,r24
  12:launch_effect.c **** 	int i;
  13:launch_effect.c ****     unsigned char ii;
  14:launch_effect.c **** 
  15:launch_effect.c **** 	fill(0x00);
  62               		.loc 1 15 0
  63 0012 80E0      		ldi r24,lo8(0)
  64               	.LVL1:
  65 0014 0E94 0000 		call fill
  16:launch_effect.c **** 
  17:launch_effect.c **** 	switch (effect)
  66               		.loc 1 17 0
  67 0018 CB31      		cpi r28,27
  68 001a D105      		cpc r29,__zero_reg__
  69 001c 00F0      		brlo .+2
  70 001e 00C0      		rjmp .L2
  71 0020 FE01      		movw r30,r28
  72 0022 E050      		subi r30,lo8(-(gs(.L30)))
  73 0024 F040      		sbci r31,hi8(-(gs(.L30)))
  74 0026 EE0F      		lsl r30
  75 0028 FF1F      		rol r31
  76 002a 0590      		lpm __tmp_reg__,Z+
  77 002c F491      		lpm r31,Z
  78 002e E02D      		mov r30,__tmp_reg__
  79 0030 0994      		ijmp
  80               		.data
  81               		.section .progmem.gcc_sw_table, "a", @progbits
  82               		.p2align 1
  83               	.L30:
  84               		.data
  85               		.section .progmem.gcc_sw_table, "a", @progbits
  86               		.p2align 1
  87 0000 0000      		.word gs(.L3)
  88 0002 0000      		.word gs(.L4)
  89 0004 0000      		.word gs(.L5)
  90 0006 0000      		.word gs(.L6)
  91 0008 0000      		.word gs(.L7)
  92 000a 0000      		.word gs(.L8)
  93 000c 0000      		.word gs(.L9)
  94 000e 0000      		.word gs(.L10)
  95 0010 0000      		.word gs(.L11)
  96 0012 0000      		.word gs(.L12)
  97 0014 0000      		.word gs(.L13)
  98 0016 0000      		.word gs(.L14)
  99 0018 0000      		.word gs(.L15)
 100 001a 0000      		.word gs(.L16)
 101 001c 0000      		.word gs(.L17)
 102 001e 0000      		.word gs(.L18)
 103 0020 0000      		.word gs(.L19)
 104 0022 0000      		.word gs(.L20)
 105 0024 0000      		.word gs(.L21)
 106 0026 0000      		.word gs(.L22)
 107 0028 0000      		.word gs(.L23)
 108 002a 0000      		.word gs(.L24)
 109 002c 0000      		.word gs(.L25)
 110 002e 0000      		.word gs(.L26)
 111 0030 0000      		.word gs(.L27)
 112 0032 0000      		.word gs(.L28)
 113 0034 0000      		.word gs(.L29)
 114               		.text
 115               	.L3:
  18:launch_effect.c **** 	{
  19:launch_effect.c **** 		case 0x00:
  20:launch_effect.c **** 			send_debug_info(PSTR("0: Rain\r\n"), 1);
 116               		.loc 1 20 0
 117 0032 80E0      		ldi r24,lo8(__c.1789)
 118 0034 90E0      		ldi r25,hi8(__c.1789)
 119 0036 61E0      		ldi r22,lo8(1)
 120 0038 0E94 0000 		call send_debug_info
  21:launch_effect.c **** 			effect_rain(100);
 121               		.loc 1 21 0
 122 003c 84E6      		ldi r24,lo8(100)
 123 003e 90E0      		ldi r25,hi8(100)
 124 0040 0E94 0000 		call effect_rain
  22:launch_effect.c **** 			break;
 125               		.loc 1 22 0
 126 0044 00C0      		rjmp .L1
 127               	.L4:
  23:launch_effect.c **** 			
  24:launch_effect.c **** 		case 1:
  25:launch_effect.c **** 			send_debug_info(PSTR("1: Random voxels\r\n"), 1);
 128               		.loc 1 25 0
 129 0046 80E0      		ldi r24,lo8(__c.1793)
 130 0048 90E0      		ldi r25,hi8(__c.1793)
 131 004a 61E0      		ldi r22,lo8(1)
 132 004c 0E94 0000 		call send_debug_info
  26:launch_effect.c **** 			sendvoxels_rand_z(20,220,2000);
 133               		.loc 1 26 0
 134 0050 84E1      		ldi r24,lo8(20)
 135 0052 90E0      		ldi r25,hi8(20)
 136 0054 6CED      		ldi r22,lo8(220)
 137 0056 70E0      		ldi r23,hi8(220)
 138 0058 40ED      		ldi r20,lo8(2000)
 139 005a 57E0      		ldi r21,hi8(2000)
 140 005c 0E94 0000 		call sendvoxels_rand_z
  27:launch_effect.c **** 			break;
 141               		.loc 1 27 0
 142 0060 00C0      		rjmp .L1
 143               	.L5:
  28:launch_effect.c **** 				
  29:launch_effect.c **** 		case 2:
  30:launch_effect.c **** 			send_debug_info(PSTR("2: Random filler\r\n"), 1);
 144               		.loc 1 30 0
 145 0062 80E0      		ldi r24,lo8(__c.1796)
 146 0064 90E0      		ldi r25,hi8(__c.1796)
 147 0066 61E0      		ldi r22,lo8(1)
 148 0068 0E94 0000 		call send_debug_info
  31:launch_effect.c **** 			effect_random_filler(5,1);
 149               		.loc 1 31 0
 150 006c 85E0      		ldi r24,lo8(5)
 151 006e 90E0      		ldi r25,hi8(5)
 152 0070 61E0      		ldi r22,lo8(1)
 153 0072 70E0      		ldi r23,hi8(1)
 154 0074 0E94 0000 		call effect_random_filler
  32:launch_effect.c **** 			effect_random_filler(5,0);
 155               		.loc 1 32 0
 156 0078 85E0      		ldi r24,lo8(5)
 157 007a 90E0      		ldi r25,hi8(5)
 158 007c 60E0      		ldi r22,lo8(0)
 159 007e 70E0      		ldi r23,hi8(0)
 160 0080 0E94 0000 		call effect_random_filler
  33:launch_effect.c **** 			effect_random_filler(5,1);
 161               		.loc 1 33 0
 162 0084 85E0      		ldi r24,lo8(5)
 163 0086 90E0      		ldi r25,hi8(5)
 164 0088 61E0      		ldi r22,lo8(1)
 165 008a 70E0      		ldi r23,hi8(1)
 166 008c 0E94 0000 		call effect_random_filler
  34:launch_effect.c **** 			effect_random_filler(5,0);
 167               		.loc 1 34 0
 168 0090 85E0      		ldi r24,lo8(5)
 169 0092 90E0      		ldi r25,hi8(5)
 170 0094 60E0      		ldi r22,lo8(0)
 171 0096 70E0      		ldi r23,hi8(0)
 172 0098 0E94 0000 		call effect_random_filler
  35:launch_effect.c **** 			break;
 173               		.loc 1 35 0
 174 009c 00C0      		rjmp .L1
 175               	.L6:
  36:launch_effect.c **** 				
  37:launch_effect.c **** 		case 3:
  38:launch_effect.c **** 			send_debug_info(PSTR("3: Z axis up/down\r\n"), 1);
 176               		.loc 1 38 0
 177 009e 80E0      		ldi r24,lo8(__c.1799)
 178 00a0 90E0      		ldi r25,hi8(__c.1799)
 179 00a2 61E0      		ldi r22,lo8(1)
 180 00a4 0E94 0000 		call send_debug_info
  39:launch_effect.c **** 			effect_z_updown(20,1000);
 181               		.loc 1 39 0
 182 00a8 84E1      		ldi r24,lo8(20)
 183 00aa 90E0      		ldi r25,hi8(20)
 184 00ac 68EE      		ldi r22,lo8(1000)
 185 00ae 73E0      		ldi r23,hi8(1000)
 186 00b0 0E94 0000 		call effect_z_updown
  40:launch_effect.c **** 			break;
 187               		.loc 1 40 0
 188 00b4 00C0      		rjmp .L1
 189               	.L7:
  41:launch_effect.c **** 				
  42:launch_effect.c **** 		case 4:
  43:launch_effect.c **** 			send_debug_info(PSTR("4: Wormsqueeze\r\n"), 1);
 190               		.loc 1 43 0
 191 00b6 80E0      		ldi r24,lo8(__c.1802)
 192 00b8 90E0      		ldi r25,hi8(__c.1802)
 193 00ba 61E0      		ldi r22,lo8(1)
 194 00bc 0E94 0000 		call send_debug_info
  44:launch_effect.c **** 			effect_wormsqueeze (2, AXIS_Z, -1, 100, 1000);
 195               		.loc 1 44 0
 196 00c0 82E0      		ldi r24,lo8(2)
 197 00c2 90E0      		ldi r25,hi8(2)
 198 00c4 00C0      		rjmp .L36
 199               	.L8:
  45:launch_effect.c **** 			break;
  46:launch_effect.c **** 				
  47:launch_effect.c **** 		case 5:
  48:launch_effect.c **** 			send_debug_info(PSTR("5: Blinky\r\n"), 1);
 200               		.loc 1 48 0
 201 00c6 80E0      		ldi r24,lo8(__c.1805)
 202 00c8 90E0      		ldi r25,hi8(__c.1805)
 203 00ca 61E0      		ldi r22,lo8(1)
 204 00cc 0E94 0000 		call send_debug_info
  49:launch_effect.c **** 			effect_blinky2();
 205               		.loc 1 49 0
 206 00d0 0E94 0000 		call effect_blinky2
  50:launch_effect.c **** 			break;
 207               		.loc 1 50 0
 208 00d4 00C0      		rjmp .L1
 209               	.L9:
  51:launch_effect.c **** 				
  52:launch_effect.c **** 		case 6: 
  53:launch_effect.c **** 			send_debug_info(PSTR("6: Boxes\r\n"), 1);
 210               		.loc 1 53 0
 211 00d6 80E0      		ldi r24,lo8(__c.1808)
 212 00d8 90E0      		ldi r25,hi8(__c.1808)
 213 00da 61E0      		ldi r22,lo8(1)
 214 00dc 0E94 0000 		call send_debug_info
 215               	.LVL2:
 216 00e0 C0E0      		ldi r28,lo8(0)
 217 00e2 D0E0      		ldi r29,hi8(0)
 218               	.LVL3:
 219               	.L32:
  54:launch_effect.c ****             for (ii=0;ii<8;ii++)
  55:launch_effect.c **** 			{
  56:launch_effect.c **** 				effect_box_shrink_grow (1, ii % 4, ii & 0x04, 450);
 220               		.loc 1 56 0 discriminator 2
 221 00e4 BE01      		movw r22,r28
 222 00e6 6370      		andi r22,lo8(3)
 223 00e8 7070      		andi r23,hi8(3)
 224 00ea AE01      		movw r20,r28
 225 00ec 4470      		andi r20,lo8(4)
 226 00ee 5070      		andi r21,hi8(4)
 227 00f0 81E0      		ldi r24,lo8(1)
 228 00f2 90E0      		ldi r25,hi8(1)
 229 00f4 22EC      		ldi r18,lo8(450)
 230 00f6 31E0      		ldi r19,hi8(450)
 231 00f8 0E94 0000 		call effect_box_shrink_grow
 232 00fc 2196      		adiw r28,1
  54:launch_effect.c ****             for (ii=0;ii<8;ii++)
 233               		.loc 1 54 0 discriminator 2
 234 00fe C830      		cpi r28,8
 235 0100 D105      		cpc r29,__zero_reg__
 236 0102 01F4      		brne .L32
  57:launch_effect.c **** 			}
  58:launch_effect.c **** 
  59:launch_effect.c **** 			effect_box_woopwoop(800,0);
 237               		.loc 1 59 0
 238 0104 80E2      		ldi r24,lo8(800)
 239 0106 93E0      		ldi r25,hi8(800)
 240 0108 60E0      		ldi r22,lo8(0)
 241 010a 70E0      		ldi r23,hi8(0)
 242 010c 0E94 0000 		call effect_box_woopwoop
  60:launch_effect.c **** 			effect_box_woopwoop(800,1);
 243               		.loc 1 60 0
 244 0110 80E2      		ldi r24,lo8(800)
 245 0112 93E0      		ldi r25,hi8(800)
 246 0114 61E0      		ldi r22,lo8(1)
 247 0116 70E0      		ldi r23,hi8(1)
 248 0118 0E94 0000 		call effect_box_woopwoop
  61:launch_effect.c **** 			effect_box_woopwoop(800,0);
 249               		.loc 1 61 0
 250 011c 80E2      		ldi r24,lo8(800)
 251 011e 93E0      		ldi r25,hi8(800)
 252 0120 60E0      		ldi r22,lo8(0)
 253 0122 70E0      		ldi r23,hi8(0)
 254 0124 0E94 0000 		call effect_box_woopwoop
  62:launch_effect.c **** 			effect_box_woopwoop(800,1);
 255               		.loc 1 62 0
 256 0128 80E2      		ldi r24,lo8(800)
 257 012a 93E0      		ldi r25,hi8(800)
 258 012c 61E0      		ldi r22,lo8(1)
 259 012e 70E0      		ldi r23,hi8(1)
 260 0130 0E94 0000 		call effect_box_woopwoop
  63:launch_effect.c **** 			break;
 261               		.loc 1 63 0
 262 0134 00C0      		rjmp .L1
 263               	.LVL4:
 264               	.L10:
  64:launch_effect.c **** 			
  65:launch_effect.c **** 		case 7:
  66:launch_effect.c **** 			send_debug_info(PSTR("7: Planboing\r\n"), 1);
 265               		.loc 1 66 0
 266 0136 80E0      		ldi r24,lo8(__c.1814)
 267 0138 90E0      		ldi r25,hi8(__c.1814)
 268 013a 61E0      		ldi r22,lo8(1)
 269 013c 0E94 0000 		call send_debug_info
  67:launch_effect.c **** 			effect_planboing (AXIS_Z, 400);
 270               		.loc 1 67 0
 271 0140 8AE7      		ldi r24,lo8(122)
 272 0142 90E0      		ldi r25,hi8(122)
 273 0144 60E9      		ldi r22,lo8(400)
 274 0146 71E0      		ldi r23,hi8(400)
 275 0148 0E94 0000 		call effect_planboing
  68:launch_effect.c **** 			effect_planboing (AXIS_X, 400);
 276               		.loc 1 68 0
 277 014c 88E7      		ldi r24,lo8(120)
 278 014e 90E0      		ldi r25,hi8(120)
 279 0150 60E9      		ldi r22,lo8(400)
 280 0152 71E0      		ldi r23,hi8(400)
 281 0154 0E94 0000 		call effect_planboing
  69:launch_effect.c **** 			effect_planboing (AXIS_Y, 400);
 282               		.loc 1 69 0
 283 0158 89E7      		ldi r24,lo8(121)
 284 015a 90E0      		ldi r25,hi8(121)
 285 015c 60E9      		ldi r22,lo8(400)
 286 015e 71E0      		ldi r23,hi8(400)
 287 0160 0E94 0000 		call effect_planboing
  70:launch_effect.c **** 			effect_planboing (AXIS_Z, 400);
 288               		.loc 1 70 0
 289 0164 8AE7      		ldi r24,lo8(122)
 290 0166 90E0      		ldi r25,hi8(122)
 291 0168 60E9      		ldi r22,lo8(400)
 292 016a 71E0      		ldi r23,hi8(400)
 293 016c 0E94 0000 		call effect_planboing
  71:launch_effect.c **** 			effect_planboing (AXIS_X, 400);
 294               		.loc 1 71 0
 295 0170 88E7      		ldi r24,lo8(120)
 296 0172 90E0      		ldi r25,hi8(120)
 297 0174 60E9      		ldi r22,lo8(400)
 298 0176 71E0      		ldi r23,hi8(400)
 299 0178 0E94 0000 		call effect_planboing
  72:launch_effect.c **** 			effect_planboing (AXIS_Y, 400);
 300               		.loc 1 72 0
 301 017c 89E7      		ldi r24,lo8(121)
 302 017e 90E0      		ldi r25,hi8(121)
 303 0180 60E9      		ldi r22,lo8(400)
 304 0182 71E0      		ldi r23,hi8(400)
 305 0184 0E94 0000 		call effect_planboing
  73:launch_effect.c **** 			break;
 306               		.loc 1 73 0
 307 0188 00C0      		rjmp .L1
 308               	.L11:
  74:launch_effect.c **** 		
  75:launch_effect.c **** 		case 8:
  76:launch_effect.c **** 			send_debug_info(PSTR("8: Telc stairs\r\n"), 1);
 309               		.loc 1 76 0
 310 018a 80E0      		ldi r24,lo8(__c.1817)
 311 018c 90E0      		ldi r25,hi8(__c.1817)
 312 018e 61E0      		ldi r22,lo8(1)
 313 0190 0E94 0000 		call send_debug_info
  77:launch_effect.c **** 			effect_telcstairs(0,800,0xff);
 314               		.loc 1 77 0
 315 0194 80E0      		ldi r24,lo8(0)
 316 0196 90E0      		ldi r25,hi8(0)
 317 0198 60E2      		ldi r22,lo8(800)
 318 019a 73E0      		ldi r23,hi8(800)
 319 019c 4FEF      		ldi r20,lo8(255)
 320 019e 50E0      		ldi r21,hi8(255)
 321 01a0 0E94 0000 		call effect_telcstairs
  78:launch_effect.c **** 			effect_telcstairs(0,800,0x00);
 322               		.loc 1 78 0
 323 01a4 80E0      		ldi r24,lo8(0)
 324 01a6 90E0      		ldi r25,hi8(0)
 325 01a8 60E2      		ldi r22,lo8(800)
 326 01aa 73E0      		ldi r23,hi8(800)
 327 01ac 40E0      		ldi r20,lo8(0)
 328 01ae 50E0      		ldi r21,hi8(0)
 329 01b0 0E94 0000 		call effect_telcstairs
  79:launch_effect.c **** 			effect_telcstairs(1,800,0xff);
 330               		.loc 1 79 0
 331 01b4 81E0      		ldi r24,lo8(1)
 332 01b6 90E0      		ldi r25,hi8(1)
 333 01b8 60E2      		ldi r22,lo8(800)
 334 01ba 73E0      		ldi r23,hi8(800)
 335 01bc 4FEF      		ldi r20,lo8(255)
 336 01be 50E0      		ldi r21,hi8(255)
 337 01c0 0E94 0000 		call effect_telcstairs
  80:launch_effect.c **** 			effect_telcstairs(1,800,0xff);
 338               		.loc 1 80 0
 339 01c4 81E0      		ldi r24,lo8(1)
 340 01c6 90E0      		ldi r25,hi8(1)
 341 01c8 60E2      		ldi r22,lo8(800)
 342 01ca 73E0      		ldi r23,hi8(800)
 343 01cc 4FEF      		ldi r20,lo8(255)
 344 01ce 50E0      		ldi r21,hi8(255)
 345 01d0 0E94 0000 		call effect_telcstairs
  81:launch_effect.c **** 			break;
 346               		.loc 1 81 0
 347 01d4 00C0      		rjmp .L1
 348               	.L12:
  82:launch_effect.c **** 			
  83:launch_effect.c **** 		case 9:
  84:launch_effect.c **** 			send_debug_info(PSTR("9: Suspend random\r\n"), 1);
 349               		.loc 1 84 0
 350 01d6 80E0      		ldi r24,lo8(__c.1820)
 351 01d8 90E0      		ldi r25,hi8(__c.1820)
 352 01da 61E0      		ldi r22,lo8(1)
 353 01dc 0E94 0000 		call send_debug_info
  85:launch_effect.c **** 			effect_axis_updown_randsuspend(AXIS_Z, 550,5000,0);
 354               		.loc 1 85 0
 355 01e0 8AE7      		ldi r24,lo8(122)
 356 01e2 66E2      		ldi r22,lo8(550)
 357 01e4 72E0      		ldi r23,hi8(550)
 358 01e6 48E8      		ldi r20,lo8(5000)
 359 01e8 53E1      		ldi r21,hi8(5000)
 360 01ea 20E0      		ldi r18,lo8(0)
 361 01ec 30E0      		ldi r19,hi8(0)
 362 01ee 0E94 0000 		call effect_axis_updown_randsuspend
  86:launch_effect.c **** 			effect_axis_updown_randsuspend(AXIS_Z, 550,5000,1);
 363               		.loc 1 86 0
 364 01f2 8AE7      		ldi r24,lo8(122)
 365 01f4 66E2      		ldi r22,lo8(550)
 366 01f6 72E0      		ldi r23,hi8(550)
 367 01f8 48E8      		ldi r20,lo8(5000)
 368 01fa 53E1      		ldi r21,hi8(5000)
 369 01fc 21E0      		ldi r18,lo8(1)
 370 01fe 30E0      		ldi r19,hi8(1)
 371 0200 0E94 0000 		call effect_axis_updown_randsuspend
  87:launch_effect.c **** 			effect_axis_updown_randsuspend(AXIS_Z, 550,5000,0);
 372               		.loc 1 87 0
 373 0204 8AE7      		ldi r24,lo8(122)
 374 0206 66E2      		ldi r22,lo8(550)
 375 0208 72E0      		ldi r23,hi8(550)
 376 020a 48E8      		ldi r20,lo8(5000)
 377 020c 53E1      		ldi r21,hi8(5000)
 378 020e 20E0      		ldi r18,lo8(0)
 379 0210 30E0      		ldi r19,hi8(0)
 380 0212 0E94 0000 		call effect_axis_updown_randsuspend
  88:launch_effect.c **** 			effect_axis_updown_randsuspend(AXIS_Z, 550,5000,1);
 381               		.loc 1 88 0
 382 0216 8AE7      		ldi r24,lo8(122)
 383 0218 66E2      		ldi r22,lo8(550)
 384 021a 72E0      		ldi r23,hi8(550)
 385 021c 48E8      		ldi r20,lo8(5000)
 386 021e 53E1      		ldi r21,hi8(5000)
 387 0220 21E0      		ldi r18,lo8(1)
 388 0222 30E0      		ldi r19,hi8(1)
 389 0224 0E94 0000 		call effect_axis_updown_randsuspend
  89:launch_effect.c **** 			effect_axis_updown_randsuspend(AXIS_X, 550,5000,0);
 390               		.loc 1 89 0
 391 0228 88E7      		ldi r24,lo8(120)
 392 022a 66E2      		ldi r22,lo8(550)
 393 022c 72E0      		ldi r23,hi8(550)
 394 022e 48E8      		ldi r20,lo8(5000)
 395 0230 53E1      		ldi r21,hi8(5000)
 396 0232 20E0      		ldi r18,lo8(0)
 397 0234 30E0      		ldi r19,hi8(0)
 398 0236 0E94 0000 		call effect_axis_updown_randsuspend
  90:launch_effect.c **** 			effect_axis_updown_randsuspend(AXIS_X, 550,5000,1);
 399               		.loc 1 90 0
 400 023a 88E7      		ldi r24,lo8(120)
 401 023c 66E2      		ldi r22,lo8(550)
 402 023e 72E0      		ldi r23,hi8(550)
 403 0240 48E8      		ldi r20,lo8(5000)
 404 0242 53E1      		ldi r21,hi8(5000)
 405 0244 21E0      		ldi r18,lo8(1)
 406 0246 30E0      		ldi r19,hi8(1)
 407 0248 0E94 0000 		call effect_axis_updown_randsuspend
  91:launch_effect.c **** 			effect_axis_updown_randsuspend(AXIS_Y, 550,5000,0);
 408               		.loc 1 91 0
 409 024c 89E7      		ldi r24,lo8(121)
 410 024e 66E2      		ldi r22,lo8(550)
 411 0250 72E0      		ldi r23,hi8(550)
 412 0252 48E8      		ldi r20,lo8(5000)
 413 0254 53E1      		ldi r21,hi8(5000)
 414 0256 20E0      		ldi r18,lo8(0)
 415 0258 30E0      		ldi r19,hi8(0)
 416 025a 0E94 0000 		call effect_axis_updown_randsuspend
  92:launch_effect.c **** 			effect_axis_updown_randsuspend(AXIS_Y, 550,5000,1);
 417               		.loc 1 92 0
 418 025e 89E7      		ldi r24,lo8(121)
 419 0260 66E2      		ldi r22,lo8(550)
 420 0262 72E0      		ldi r23,hi8(550)
 421 0264 48E8      		ldi r20,lo8(5000)
 422 0266 53E1      		ldi r21,hi8(5000)
 423 0268 21E0      		ldi r18,lo8(1)
 424 026a 30E0      		ldi r19,hi8(1)
 425 026c 0E94 0000 		call effect_axis_updown_randsuspend
  93:launch_effect.c **** 			break;
 426               		.loc 1 93 0
 427 0270 00C0      		rjmp .L1
 428               	.L13:
  94:launch_effect.c **** 			
  95:launch_effect.c **** 		case 10:
  96:launch_effect.c **** 			send_debug_info(PSTR("10: Load bar\r\n"), 1);
 429               		.loc 1 96 0
 430 0272 80E0      		ldi r24,lo8(__c.1823)
 431 0274 90E0      		ldi r25,hi8(__c.1823)
 432 0276 61E0      		ldi r22,lo8(1)
 433 0278 0E94 0000 		call send_debug_info
  97:launch_effect.c **** 			effect_loadbar(700);
 434               		.loc 1 97 0
 435 027c 8CEB      		ldi r24,lo8(700)
 436 027e 92E0      		ldi r25,hi8(700)
 437 0280 0E94 0000 		call effect_loadbar
  98:launch_effect.c **** 			break;
 438               		.loc 1 98 0
 439 0284 00C0      		rjmp .L1
 440               	.L14:
  99:launch_effect.c **** 			
 100:launch_effect.c **** 		case 11:
 101:launch_effect.c **** 			send_debug_info(PSTR("11: Worm squeeze\r\n"), 1);
 441               		.loc 1 101 0
 442 0286 80E0      		ldi r24,lo8(__c.1826)
 443 0288 90E0      		ldi r25,hi8(__c.1826)
 444 028a 61E0      		ldi r22,lo8(1)
 445 028c 0E94 0000 		call send_debug_info
 102:launch_effect.c **** 			effect_wormsqueeze(1, AXIS_Z, 1, 100, 1000);
 446               		.loc 1 102 0
 447 0290 81E0      		ldi r24,lo8(1)
 448 0292 90E0      		ldi r25,hi8(1)
 449 0294 6AE7      		ldi r22,lo8(122)
 450 0296 70E0      		ldi r23,hi8(122)
 451 0298 41E0      		ldi r20,lo8(1)
 452 029a 50E0      		ldi r21,hi8(1)
 453 029c 00C0      		rjmp .L37
 454               	.L15:
 103:launch_effect.c **** 			break;
 104:launch_effect.c **** 			
 105:launch_effect.c **** 			
 106:launch_effect.c **** 		case 12:
 107:launch_effect.c **** 			send_debug_info(PSTR("12: String fly\r\n"), 1);
 455               		.loc 1 107 0
 456 029e 80E0      		ldi r24,lo8(__c.1829)
 457 02a0 90E0      		ldi r25,hi8(__c.1829)
 458 02a2 61E0      		ldi r22,lo8(1)
 459 02a4 0E94 0000 		call send_debug_info
 108:launch_effect.c **** 			effect_stringfly2(PSTR("INSTRUCTABLES"), 1);
 460               		.loc 1 108 0
 461 02a8 80E0      		ldi r24,lo8(__c.1831)
 462 02aa 90E0      		ldi r25,hi8(__c.1831)
 463 02ac 00C0      		rjmp .L38
 464               	.L16:
 109:launch_effect.c **** 			break;
 110:launch_effect.c **** 			
 111:launch_effect.c **** 		case 13:
 112:launch_effect.c **** 			send_debug_info(PSTR("13: Game of Life\r\n"), 1);
 465               		.loc 1 112 0
 466 02ae 80E0      		ldi r24,lo8(__c.1834)
 467 02b0 90E0      		ldi r25,hi8(__c.1834)
 468 02b2 61E0      		ldi r22,lo8(1)
 469 02b4 0E94 0000 		call send_debug_info
 470               	.LVL5:
 471 02b8 C4E1      		ldi r28,lo8(20)
 472 02ba D0E0      		ldi r29,hi8(20)
 473               	.LVL6:
 113:launch_effect.c ****             // Create a random starting point for the Game of Life effect.
 114:launch_effect.c **** 			for (i = 0; i < 20;i++)
 115:launch_effect.c **** 			{
 116:launch_effect.c **** 				setvoxel(rand()%4,rand()%4,rand()%4);
 474               		.loc 1 116 0
 475 02bc 04E0      		ldi r16,lo8(4)
 476 02be 10E0      		ldi r17,hi8(4)
 477               	.LVL7:
 478               	.L33:
 479               		.loc 1 116 0 is_stmt 0 discriminator 2
 480 02c0 0E94 0000 		call rand
 481 02c4 7C01      		movw r14,r24
 482 02c6 0E94 0000 		call rand
 483 02ca 6C01      		movw r12,r24
 484 02cc 0E94 0000 		call rand
 485 02d0 9C01      		movw r18,r24
 486 02d2 C701      		movw r24,r14
 487 02d4 B801      		movw r22,r16
 488 02d6 0E94 0000 		call __divmodhi4
 489 02da FC01      		movw r30,r24
 490 02dc C601      		movw r24,r12
 491 02de B801      		movw r22,r16
 492 02e0 0E94 0000 		call __divmodhi4
 493 02e4 7C01      		movw r14,r24
 494 02e6 C901      		movw r24,r18
 495 02e8 B801      		movw r22,r16
 496 02ea 0E94 0000 		call __divmodhi4
 497 02ee AC01      		movw r20,r24
 498 02f0 CF01      		movw r24,r30
 499 02f2 B701      		movw r22,r14
 500 02f4 0E94 0000 		call setvoxel
 501 02f8 2197      		sbiw r28,1
 114:launch_effect.c **** 			for (i = 0; i < 20;i++)
 502               		.loc 1 114 0 is_stmt 1 discriminator 2
 503 02fa 01F4      		brne .L33
 117:launch_effect.c **** 			}
 118:launch_effect.c **** 	
 119:launch_effect.c **** 			gol_play(20, 400);
 504               		.loc 1 119 0
 505 02fc 84E1      		ldi r24,lo8(20)
 506 02fe 90E0      		ldi r25,hi8(20)
 507 0300 60E9      		ldi r22,lo8(400)
 508 0302 71E0      		ldi r23,hi8(400)
 509 0304 0E94 0000 		call gol_play
 120:launch_effect.c **** 			break;
 510               		.loc 1 120 0
 511 0308 00C0      		rjmp .L1
 512               	.LVL8:
 513               	.L17:
 121:launch_effect.c **** 			
 122:launch_effect.c **** 		case 14:
 123:launch_effect.c **** 			send_debug_info(PSTR("14: Flying boxes?\r\n"), 1);
 514               		.loc 1 123 0
 515 030a 80E0      		ldi r24,lo8(__c.1840)
 516 030c 90E0      		ldi r25,hi8(__c.1840)
 517 030e 61E0      		ldi r22,lo8(1)
 518 0310 0E94 0000 		call send_debug_info
 124:launch_effect.c **** 			effect_boxside_randsend_parallel (AXIS_Z, 0 , 200, 1);
 519               		.loc 1 124 0
 520 0314 8AE7      		ldi r24,lo8(122)
 521 0316 60E0      		ldi r22,lo8(0)
 522 0318 70E0      		ldi r23,hi8(0)
 523 031a 48EC      		ldi r20,lo8(200)
 524 031c 50E0      		ldi r21,hi8(200)
 525 031e 21E0      		ldi r18,lo8(1)
 526 0320 30E0      		ldi r19,hi8(1)
 527 0322 0E94 0000 		call effect_boxside_randsend_parallel
 125:launch_effect.c **** 			delay_ms(1500);
 528               		.loc 1 125 0
 529 0326 8CED      		ldi r24,lo8(1500)
 530 0328 95E0      		ldi r25,hi8(1500)
 531 032a 0E94 0000 		call delay_ms
 126:launch_effect.c **** 			effect_boxside_randsend_parallel (AXIS_Z, 1 , 200, 1);
 532               		.loc 1 126 0
 533 032e 8AE7      		ldi r24,lo8(122)
 534 0330 61E0      		ldi r22,lo8(1)
 535 0332 70E0      		ldi r23,hi8(1)
 536 0334 48EC      		ldi r20,lo8(200)
 537 0336 50E0      		ldi r21,hi8(200)
 538 0338 21E0      		ldi r18,lo8(1)
 539 033a 30E0      		ldi r19,hi8(1)
 540 033c 0E94 0000 		call effect_boxside_randsend_parallel
 127:launch_effect.c **** 			delay_ms(1500);
 541               		.loc 1 127 0
 542 0340 8CED      		ldi r24,lo8(1500)
 543 0342 95E0      		ldi r25,hi8(1500)
 544 0344 0E94 0000 		call delay_ms
 128:launch_effect.c **** 			
 129:launch_effect.c **** 			effect_boxside_randsend_parallel (AXIS_Z, 0 , 200, 2);
 545               		.loc 1 129 0
 546 0348 8AE7      		ldi r24,lo8(122)
 547 034a 60E0      		ldi r22,lo8(0)
 548 034c 70E0      		ldi r23,hi8(0)
 549 034e 48EC      		ldi r20,lo8(200)
 550 0350 50E0      		ldi r21,hi8(200)
 551 0352 22E0      		ldi r18,lo8(2)
 552 0354 30E0      		ldi r19,hi8(2)
 553 0356 0E94 0000 		call effect_boxside_randsend_parallel
 130:launch_effect.c **** 			delay_ms(1500);
 554               		.loc 1 130 0
 555 035a 8CED      		ldi r24,lo8(1500)
 556 035c 95E0      		ldi r25,hi8(1500)
 557 035e 0E94 0000 		call delay_ms
 131:launch_effect.c **** 			effect_boxside_randsend_parallel (AXIS_Z, 1 , 200, 2);
 558               		.loc 1 131 0
 559 0362 8AE7      		ldi r24,lo8(122)
 560 0364 61E0      		ldi r22,lo8(1)
 561 0366 70E0      		ldi r23,hi8(1)
 562 0368 48EC      		ldi r20,lo8(200)
 563 036a 50E0      		ldi r21,hi8(200)
 564 036c 22E0      		ldi r18,lo8(2)
 565 036e 30E0      		ldi r19,hi8(2)
 566 0370 0E94 0000 		call effect_boxside_randsend_parallel
 132:launch_effect.c **** 			delay_ms(1500);
 567               		.loc 1 132 0
 568 0374 8CED      		ldi r24,lo8(1500)
 569 0376 95E0      		ldi r25,hi8(1500)
 570 0378 0E94 0000 		call delay_ms
 133:launch_effect.c **** 			
 134:launch_effect.c **** 			effect_boxside_randsend_parallel (AXIS_Y, 0 , 200, 1);
 571               		.loc 1 134 0
 572 037c 89E7      		ldi r24,lo8(121)
 573 037e 60E0      		ldi r22,lo8(0)
 574 0380 70E0      		ldi r23,hi8(0)
 575 0382 48EC      		ldi r20,lo8(200)
 576 0384 50E0      		ldi r21,hi8(200)
 577 0386 21E0      		ldi r18,lo8(1)
 578 0388 30E0      		ldi r19,hi8(1)
 579 038a 0E94 0000 		call effect_boxside_randsend_parallel
 135:launch_effect.c **** 			delay_ms(1500);
 580               		.loc 1 135 0
 581 038e 8CED      		ldi r24,lo8(1500)
 582 0390 95E0      		ldi r25,hi8(1500)
 583 0392 0E94 0000 		call delay_ms
 136:launch_effect.c **** 			effect_boxside_randsend_parallel (AXIS_Y, 1 , 200, 1);
 584               		.loc 1 136 0
 585 0396 89E7      		ldi r24,lo8(121)
 586 0398 61E0      		ldi r22,lo8(1)
 587 039a 70E0      		ldi r23,hi8(1)
 588 039c 48EC      		ldi r20,lo8(200)
 589 039e 50E0      		ldi r21,hi8(200)
 590 03a0 21E0      		ldi r18,lo8(1)
 591 03a2 30E0      		ldi r19,hi8(1)
 592 03a4 0E94 0000 		call effect_boxside_randsend_parallel
 137:launch_effect.c **** 			delay_ms(1500);
 593               		.loc 1 137 0
 594 03a8 8CED      		ldi r24,lo8(1500)
 595 03aa 95E0      		ldi r25,hi8(1500)
 596 03ac 0E94 0000 		call delay_ms
 138:launch_effect.c **** 			break;
 597               		.loc 1 138 0
 598 03b0 00C0      		rjmp .L1
 599               	.L18:
 139:launch_effect.c **** 			
 140:launch_effect.c **** 		case 15:
 141:launch_effect.c **** 			send_debug_info(PSTR("15: Boing boing\r\n"), 1);
 600               		.loc 1 141 0
 601 03b2 80E0      		ldi r24,lo8(__c.1843)
 602 03b4 90E0      		ldi r25,hi8(__c.1843)
 603 03b6 61E0      		ldi r22,lo8(1)
 604 03b8 0E94 0000 		call send_debug_info
 142:launch_effect.c **** 			boingboing(250, 600, 0x01, 0x02);
 605               		.loc 1 142 0
 606 03bc 8AEF      		ldi r24,lo8(250)
 607 03be 90E0      		ldi r25,hi8(250)
 608 03c0 68E5      		ldi r22,lo8(600)
 609 03c2 72E0      		ldi r23,hi8(600)
 610 03c4 41E0      		ldi r20,lo8(1)
 611 03c6 22E0      		ldi r18,lo8(2)
 612 03c8 00C0      		rjmp .L39
 613               	.L19:
 143:launch_effect.c **** 			break;
 144:launch_effect.c **** 			
 145:launch_effect.c **** 		case 16:
 146:launch_effect.c **** 			send_debug_info(PSTR("16: Smiley spin\r\n"), 1);
 614               		.loc 1 146 0
 615 03ca 80E0      		ldi r24,lo8(__c.1846)
 616 03cc 90E0      		ldi r25,hi8(__c.1846)
 617 03ce 61E0      		ldi r22,lo8(1)
 618 03d0 0E94 0000 		call send_debug_info
 147:launch_effect.c **** 			effect_smileyspin(2,1000,0);
 619               		.loc 1 147 0
 620 03d4 82E0      		ldi r24,lo8(2)
 621 03d6 90E0      		ldi r25,hi8(2)
 622 03d8 68EE      		ldi r22,lo8(1000)
 623 03da 73E0      		ldi r23,hi8(1000)
 624 03dc 40E0      		ldi r20,lo8(0)
 625 03de 00C0      		rjmp .L40
 626               	.L20:
 148:launch_effect.c **** 			break;
 149:launch_effect.c **** 			
 150:launch_effect.c **** 		case 17:
 151:launch_effect.c **** 			send_debug_info(PSTR("17: Path spiral\r\n"), 1);
 627               		.loc 1 151 0
 628 03e0 80E0      		ldi r24,lo8(__c.1849)
 629 03e2 90E0      		ldi r25,hi8(__c.1849)
 630 03e4 61E0      		ldi r22,lo8(1)
 631 03e6 0E94 0000 		call send_debug_info
 152:launch_effect.c **** 			effect_pathspiral(100,500);
 632               		.loc 1 152 0
 633 03ea 84E6      		ldi r24,lo8(100)
 634 03ec 90E0      		ldi r25,hi8(100)
 635 03ee 64EF      		ldi r22,lo8(500)
 636 03f0 71E0      		ldi r23,hi8(500)
 637 03f2 0E94 0000 		call effect_pathspiral
 153:launch_effect.c **** 			break;
 638               		.loc 1 153 0
 639 03f6 00C0      		rjmp .L1
 640               	.L21:
 154:launch_effect.c **** 			
 155:launch_effect.c **** 		case 18:
 156:launch_effect.c **** 			send_debug_info(PSTR("18: Path bitmap\r\n"), 1);
 641               		.loc 1 156 0
 642 03f8 80E0      		ldi r24,lo8(__c.1852)
 643 03fa 90E0      		ldi r25,hi8(__c.1852)
 644 03fc 61E0      		ldi r22,lo8(1)
 645 03fe 0E94 0000 		call send_debug_info
 157:launch_effect.c **** 			effect_path_bitmap(700,2,3);
 646               		.loc 1 157 0
 647 0402 8CEB      		ldi r24,lo8(700)
 648 0404 92E0      		ldi r25,hi8(700)
 649 0406 62E0      		ldi r22,lo8(2)
 650 0408 43E0      		ldi r20,lo8(3)
 651 040a 50E0      		ldi r21,hi8(3)
 652 040c 0E94 0000 		call effect_path_bitmap
 158:launch_effect.c **** 			break;
 653               		.loc 1 158 0
 654 0410 00C0      		rjmp .L1
 655               	.L22:
 159:launch_effect.c **** 			
 160:launch_effect.c **** 		case 19:
 161:launch_effect.c **** 			send_debug_info(PSTR("19: Smiley spin\r\n"), 1);
 656               		.loc 1 161 0
 657 0412 80E0      		ldi r24,lo8(__c.1855)
 658 0414 90E0      		ldi r25,hi8(__c.1855)
 659 0416 61E0      		ldi r22,lo8(1)
 660 0418 0E94 0000 		call send_debug_info
 162:launch_effect.c **** 			effect_smileyspin(2,1000,1);
 661               		.loc 1 162 0
 662 041c 82E0      		ldi r24,lo8(2)
 663 041e 90E0      		ldi r25,hi8(2)
 664 0420 68EE      		ldi r22,lo8(1000)
 665 0422 73E0      		ldi r23,hi8(1000)
 666 0424 41E0      		ldi r20,lo8(1)
 667 0426 00C0      		rjmp .L40
 668               	.L23:
 163:launch_effect.c **** 			break;
 164:launch_effect.c **** 			
 165:launch_effect.c **** 		case 20:
 166:launch_effect.c **** 			send_debug_info(PSTR("20: Path text\r\n"), 1);
 669               		.loc 1 166 0
 670 0428 80E0      		ldi r24,lo8(__c.1858)
 671 042a 90E0      		ldi r25,hi8(__c.1858)
 672 042c 61E0      		ldi r22,lo8(1)
 673 042e 0E94 0000 		call send_debug_info
 167:launch_effect.c **** 			effect_path_text(1000, "TG", 0);
 674               		.loc 1 167 0
 675 0432 88EE      		ldi r24,lo8(1000)
 676 0434 93E0      		ldi r25,hi8(1000)
 677 0436 60E0      		ldi r22,lo8(.LC0)
 678 0438 70E0      		ldi r23,hi8(.LC0)
 679 043a 40E0      		ldi r20,lo8(0)
 680 043c 0E94 0000 		call effect_path_text
 168:launch_effect.c **** 			break;
 681               		.loc 1 168 0
 682 0440 00C0      		rjmp .L1
 683               	.L24:
 169:launch_effect.c **** 	
 170:launch_effect.c **** 		case 21:
 171:launch_effect.c **** 			send_debug_info(PSTR("21: Path text\r\n"), 1);
 684               		.loc 1 171 0
 685 0442 80E0      		ldi r24,lo8(__c.1861)
 686 0444 90E0      		ldi r25,hi8(__c.1861)
 687 0446 61E0      		ldi r22,lo8(1)
 688 0448 0E94 0000 		call send_debug_info
 172:launch_effect.c **** 			effect_rand_patharound(200,500);
 689               		.loc 1 172 0
 690 044c 88EC      		ldi r24,lo8(200)
 691 044e 90E0      		ldi r25,hi8(200)
 692 0450 64EF      		ldi r22,lo8(500)
 693 0452 71E0      		ldi r23,hi8(500)
 694 0454 0E94 0000 		call effect_rand_patharound
 173:launch_effect.c **** 			break;
 695               		.loc 1 173 0
 696 0458 00C0      		rjmp .L1
 697               	.L25:
 174:launch_effect.c **** 			
 175:launch_effect.c **** 		case 22:
 176:launch_effect.c **** 			send_debug_info(PSTR("22: Worm squeeze\r\n"), 1);
 698               		.loc 1 176 0
 699 045a 80E0      		ldi r24,lo8(__c.1864)
 700 045c 90E0      		ldi r25,hi8(__c.1864)
 701 045e 00C0      		rjmp .L41
 702               	.L26:
 177:launch_effect.c **** 			effect_wormsqueeze(1, AXIS_Z, -1, 100, 1000);
 178:launch_effect.c **** 			break;
 179:launch_effect.c **** 			
 180:launch_effect.c **** 		case 23:
 181:launch_effect.c **** 			send_debug_info(PSTR("23: Smiley spin\r\n"), 1);
 703               		.loc 1 181 0
 704 0460 80E0      		ldi r24,lo8(__c.1867)
 705 0462 90E0      		ldi r25,hi8(__c.1867)
 706 0464 61E0      		ldi r22,lo8(1)
 707 0466 0E94 0000 		call send_debug_info
 182:launch_effect.c **** 			effect_smileyspin(2,1000,2);
 708               		.loc 1 182 0
 709 046a 82E0      		ldi r24,lo8(2)
 710 046c 90E0      		ldi r25,hi8(2)
 711 046e 68EE      		ldi r22,lo8(1000)
 712 0470 73E0      		ldi r23,hi8(1000)
 713 0472 42E0      		ldi r20,lo8(2)
 714               	.L40:
 715 0474 0E94 0000 		call effect_smileyspin
 183:launch_effect.c **** 			break;
 716               		.loc 1 183 0
 717 0478 00C0      		rjmp .L1
 718               	.L27:
 184:launch_effect.c **** 			
 185:launch_effect.c **** 		case 24:
 186:launch_effect.c **** 			send_debug_info(PSTR("24: Random sparkle\r\n"), 1);
 719               		.loc 1 186 0
 720 047a 80E0      		ldi r24,lo8(__c.1870)
 721 047c 90E0      		ldi r25,hi8(__c.1870)
 722 047e 61E0      		ldi r22,lo8(1)
 723 0480 0E94 0000 		call send_debug_info
 187:launch_effect.c **** 			effect_random_sparkle();
 724               		.loc 1 187 0
 725 0484 0E94 0000 		call effect_random_sparkle
 188:launch_effect.c **** 			break;
 726               		.loc 1 188 0
 727 0488 00C0      		rjmp .L1
 728               	.L28:
 189:launch_effect.c **** 			
 190:launch_effect.c **** 		case 25:
 191:launch_effect.c **** 			send_debug_info(PSTR("25: Worm squeeze\r\n"), 1);
 729               		.loc 1 191 0
 730 048a 80E0      		ldi r24,lo8(__c.1873)
 731 048c 90E0      		ldi r25,hi8(__c.1873)
 732               	.L41:
 733 048e 61E0      		ldi r22,lo8(1)
 734 0490 0E94 0000 		call send_debug_info
 192:launch_effect.c **** 			effect_wormsqueeze(1, AXIS_Z, -1, 100, 1000);
 735               		.loc 1 192 0
 736 0494 81E0      		ldi r24,lo8(1)
 737 0496 90E0      		ldi r25,hi8(1)
 738               	.L36:
 739 0498 6AE7      		ldi r22,lo8(122)
 740 049a 70E0      		ldi r23,hi8(122)
 741 049c 4FEF      		ldi r20,lo8(-1)
 742 049e 5FEF      		ldi r21,hi8(-1)
 743               	.L37:
 744 04a0 24E6      		ldi r18,lo8(100)
 745 04a2 30E0      		ldi r19,hi8(100)
 746 04a4 08EE      		ldi r16,lo8(1000)
 747 04a6 13E0      		ldi r17,hi8(1000)
 748 04a8 0E94 0000 		call effect_wormsqueeze
 193:launch_effect.c **** 			break;
 749               		.loc 1 193 0
 750 04ac 00C0      		rjmp .L1
 751               	.L29:
 194:launch_effect.c **** 		
 195:launch_effect.c **** 		case 26:
 196:launch_effect.c **** 			send_debug_info(PSTR("26: Boing boing\r\n"), 1);
 752               		.loc 1 196 0
 753 04ae 80E0      		ldi r24,lo8(__c.1876)
 754 04b0 90E0      		ldi r25,hi8(__c.1876)
 755 04b2 61E0      		ldi r22,lo8(1)
 756 04b4 0E94 0000 		call send_debug_info
 197:launch_effect.c **** 			boingboing(250, 600, 0x01, 0x03);
 757               		.loc 1 197 0
 758 04b8 8AEF      		ldi r24,lo8(250)
 759 04ba 90E0      		ldi r25,hi8(250)
 760 04bc 68E5      		ldi r22,lo8(600)
 761 04be 72E0      		ldi r23,hi8(600)
 762 04c0 41E0      		ldi r20,lo8(1)
 763 04c2 23E0      		ldi r18,lo8(3)
 764               	.L39:
 765 04c4 0E94 0000 		call boingboing
 198:launch_effect.c **** 			break;
 766               		.loc 1 198 0
 767 04c8 00C0      		rjmp .L1
 768               	.L2:
 199:launch_effect.c **** 		
 200:launch_effect.c **** 		// In case the effect number is out of range:
 201:launch_effect.c **** 		default:
 202:launch_effect.c **** 			send_debug_info(PSTR("Fail\r\n"), 1);
 769               		.loc 1 202 0
 770 04ca 80E0      		ldi r24,lo8(__c.1879)
 771 04cc 90E0      		ldi r25,hi8(__c.1879)
 772 04ce 61E0      		ldi r22,lo8(1)
 773 04d0 0E94 0000 		call send_debug_info
 203:launch_effect.c **** 			effect_stringfly2(PSTR("FAIL"), 1);
 774               		.loc 1 203 0
 775 04d4 80E0      		ldi r24,lo8(__c.1881)
 776 04d6 90E0      		ldi r25,hi8(__c.1881)
 777               	.L38:
 778 04d8 61E0      		ldi r22,lo8(1)
 779 04da 0E94 0000 		call effect_stringfly2
 780               	.LVL9:
 781               	.L1:
 782               	/* epilogue start */
 204:launch_effect.c **** 			break;
 205:launch_effect.c **** 	}
 206:launch_effect.c **** }
 783               		.loc 1 206 0
 784 04de DF91      		pop r29
 785 04e0 CF91      		pop r28
 786 04e2 1F91      		pop r17
 787 04e4 0F91      		pop r16
 788 04e6 FF90      		pop r15
 789 04e8 EF90      		pop r14
 790 04ea DF90      		pop r13
 791 04ec CF90      		pop r12
 792 04ee 0895      		ret
 793               		.cfi_endproc
 794               	.LFE1:
 796               		.comm fb,64,1
 797               		.comm cube,64,1
 798               		.section	.progmem.data,"a",@progbits
 801               	__c.1789:
 802 0000 303A 2052 		.string	"0: Rain\r\n"
 802      6169 6E0D 
 802      0A00 
 805               	__c.1793:
 806 000a 313A 2052 		.string	"1: Random voxels\r\n"
 806      616E 646F 
 806      6D20 766F 
 806      7865 6C73 
 806      0D0A 00
 809               	__c.1796:
 810 001d 323A 2052 		.string	"2: Random filler\r\n"
 810      616E 646F 
 810      6D20 6669 
 810      6C6C 6572 
 810      0D0A 00
 813               	__c.1799:
 814 0030 333A 205A 		.string	"3: Z axis up/down\r\n"
 814      2061 7869 
 814      7320 7570 
 814      2F64 6F77 
 814      6E0D 0A00 
 817               	__c.1802:
 818 0044 343A 2057 		.string	"4: Wormsqueeze\r\n"
 818      6F72 6D73 
 818      7175 6565 
 818      7A65 0D0A 
 818      00
 821               	__c.1805:
 822 0055 353A 2042 		.string	"5: Blinky\r\n"
 822      6C69 6E6B 
 822      790D 0A00 
 825               	__c.1808:
 826 0061 363A 2042 		.string	"6: Boxes\r\n"
 826      6F78 6573 
 826      0D0A 00
 829               	__c.1814:
 830 006c 373A 2050 		.string	"7: Planboing\r\n"
 830      6C61 6E62 
 830      6F69 6E67 
 830      0D0A 00
 833               	__c.1817:
 834 007b 383A 2054 		.string	"8: Telc stairs\r\n"
 834      656C 6320 
 834      7374 6169 
 834      7273 0D0A 
 834      00
 837               	__c.1820:
 838 008c 393A 2053 		.string	"9: Suspend random\r\n"
 838      7573 7065 
 838      6E64 2072 
 838      616E 646F 
 838      6D0D 0A00 
 841               	__c.1823:
 842 00a0 3130 3A20 		.string	"10: Load bar\r\n"
 842      4C6F 6164 
 842      2062 6172 
 842      0D0A 00
 845               	__c.1826:
 846 00af 3131 3A20 		.string	"11: Worm squeeze\r\n"
 846      576F 726D 
 846      2073 7175 
 846      6565 7A65 
 846      0D0A 00
 849               	__c.1829:
 850 00c2 3132 3A20 		.string	"12: String fly\r\n"
 850      5374 7269 
 850      6E67 2066 
 850      6C79 0D0A 
 850      00
 853               	__c.1831:
 854 00d3 494E 5354 		.string	"INSTRUCTABLES"
 854      5255 4354 
 854      4142 4C45 
 854      5300 
 857               	__c.1834:
 858 00e1 3133 3A20 		.string	"13: Game of Life\r\n"
 858      4761 6D65 
 858      206F 6620 
 858      4C69 6665 
 858      0D0A 00
 861               	__c.1840:
 862 00f4 3134 3A20 		.string	"14: Flying boxes?\r\n"
 862      466C 7969 
 862      6E67 2062 
 862      6F78 6573 
 862      3F0D 0A00 
 865               	__c.1843:
 866 0108 3135 3A20 		.string	"15: Boing boing\r\n"
 866      426F 696E 
 866      6720 626F 
 866      696E 670D 
 866      0A00 
 869               	__c.1846:
 870 011a 3136 3A20 		.string	"16: Smiley spin\r\n"
 870      536D 696C 
 870      6579 2073 
 870      7069 6E0D 
 870      0A00 
 873               	__c.1849:
 874 012c 3137 3A20 		.string	"17: Path spiral\r\n"
 874      5061 7468 
 874      2073 7069 
 874      7261 6C0D 
 874      0A00 
 877               	__c.1852:
 878 013e 3138 3A20 		.string	"18: Path bitmap\r\n"
 878      5061 7468 
 878      2062 6974 
 878      6D61 700D 
 878      0A00 
 881               	__c.1855:
 882 0150 3139 3A20 		.string	"19: Smiley spin\r\n"
 882      536D 696C 
 882      6579 2073 
 882      7069 6E0D 
 882      0A00 
 885               	__c.1858:
 886 0162 3230 3A20 		.string	"20: Path text\r\n"
 886      5061 7468 
 886      2074 6578 
 886      740D 0A00 
 889               	__c.1861:
 890 0172 3231 3A20 		.string	"21: Path text\r\n"
 890      5061 7468 
 890      2074 6578 
 890      740D 0A00 
 893               	__c.1864:
 894 0182 3232 3A20 		.string	"22: Worm squeeze\r\n"
 894      576F 726D 
 894      2073 7175 
 894      6565 7A65 
 894      0D0A 00
 897               	__c.1867:
 898 0195 3233 3A20 		.string	"23: Smiley spin\r\n"
 898      536D 696C 
 898      6579 2073 
 898      7069 6E0D 
 898      0A00 
 901               	__c.1870:
 902 01a7 3234 3A20 		.string	"24: Random sparkle\r\n"
 902      5261 6E64 
 902      6F6D 2073 
 902      7061 726B 
 902      6C65 0D0A 
 905               	__c.1873:
 906 01bc 3235 3A20 		.string	"25: Worm squeeze\r\n"
 906      576F 726D 
 906      2073 7175 
 906      6565 7A65 
 906      0D0A 00
 909               	__c.1876:
 910 01cf 3236 3A20 		.string	"26: Boing boing\r\n"
 910      426F 696E 
 910      6720 626F 
 910      696E 670D 
 910      0A00 
 913               	__c.1879:
 914 01e1 4661 696C 		.string	"Fail\r\n"
 914      0D0A 00
 917               	__c.1881:
 918 01e8 4641 494C 		.string	"FAIL"
 918      00
 919               		.text
 920               	.Letext0:
 921               		.file 2 "cube.h"
DEFINED SYMBOLS
                            *ABS*:00000000 launch_effect.c
/var/folders/_t/3n28601j4f36k4h8t71c5mvr0000gn/T//cc34JHLi.s:2      *ABS*:0000003f __SREG__
/var/folders/_t/3n28601j4f36k4h8t71c5mvr0000gn/T//cc34JHLi.s:3      *ABS*:0000003e __SP_H__
/var/folders/_t/3n28601j4f36k4h8t71c5mvr0000gn/T//cc34JHLi.s:4      *ABS*:0000003d __SP_L__
/var/folders/_t/3n28601j4f36k4h8t71c5mvr0000gn/T//cc34JHLi.s:5      *ABS*:00000034 __CCP__
/var/folders/_t/3n28601j4f36k4h8t71c5mvr0000gn/T//cc34JHLi.s:6      *ABS*:00000000 __tmp_reg__
/var/folders/_t/3n28601j4f36k4h8t71c5mvr0000gn/T//cc34JHLi.s:7      *ABS*:00000001 __zero_reg__
/var/folders/_t/3n28601j4f36k4h8t71c5mvr0000gn/T//cc34JHLi.s:19     .text:00000000 launch_effect
/var/folders/_t/3n28601j4f36k4h8t71c5mvr0000gn/T//cc34JHLi.s:801    .progmem.data:00000000 __c.1789
/var/folders/_t/3n28601j4f36k4h8t71c5mvr0000gn/T//cc34JHLi.s:805    .progmem.data:0000000a __c.1793
/var/folders/_t/3n28601j4f36k4h8t71c5mvr0000gn/T//cc34JHLi.s:809    .progmem.data:0000001d __c.1796
/var/folders/_t/3n28601j4f36k4h8t71c5mvr0000gn/T//cc34JHLi.s:813    .progmem.data:00000030 __c.1799
/var/folders/_t/3n28601j4f36k4h8t71c5mvr0000gn/T//cc34JHLi.s:817    .progmem.data:00000044 __c.1802
/var/folders/_t/3n28601j4f36k4h8t71c5mvr0000gn/T//cc34JHLi.s:821    .progmem.data:00000055 __c.1805
/var/folders/_t/3n28601j4f36k4h8t71c5mvr0000gn/T//cc34JHLi.s:825    .progmem.data:00000061 __c.1808
/var/folders/_t/3n28601j4f36k4h8t71c5mvr0000gn/T//cc34JHLi.s:829    .progmem.data:0000006c __c.1814
/var/folders/_t/3n28601j4f36k4h8t71c5mvr0000gn/T//cc34JHLi.s:833    .progmem.data:0000007b __c.1817
/var/folders/_t/3n28601j4f36k4h8t71c5mvr0000gn/T//cc34JHLi.s:837    .progmem.data:0000008c __c.1820
/var/folders/_t/3n28601j4f36k4h8t71c5mvr0000gn/T//cc34JHLi.s:841    .progmem.data:000000a0 __c.1823
/var/folders/_t/3n28601j4f36k4h8t71c5mvr0000gn/T//cc34JHLi.s:845    .progmem.data:000000af __c.1826
/var/folders/_t/3n28601j4f36k4h8t71c5mvr0000gn/T//cc34JHLi.s:849    .progmem.data:000000c2 __c.1829
/var/folders/_t/3n28601j4f36k4h8t71c5mvr0000gn/T//cc34JHLi.s:853    .progmem.data:000000d3 __c.1831
/var/folders/_t/3n28601j4f36k4h8t71c5mvr0000gn/T//cc34JHLi.s:857    .progmem.data:000000e1 __c.1834
/var/folders/_t/3n28601j4f36k4h8t71c5mvr0000gn/T//cc34JHLi.s:861    .progmem.data:000000f4 __c.1840
/var/folders/_t/3n28601j4f36k4h8t71c5mvr0000gn/T//cc34JHLi.s:865    .progmem.data:00000108 __c.1843
/var/folders/_t/3n28601j4f36k4h8t71c5mvr0000gn/T//cc34JHLi.s:869    .progmem.data:0000011a __c.1846
/var/folders/_t/3n28601j4f36k4h8t71c5mvr0000gn/T//cc34JHLi.s:873    .progmem.data:0000012c __c.1849
/var/folders/_t/3n28601j4f36k4h8t71c5mvr0000gn/T//cc34JHLi.s:877    .progmem.data:0000013e __c.1852
/var/folders/_t/3n28601j4f36k4h8t71c5mvr0000gn/T//cc34JHLi.s:881    .progmem.data:00000150 __c.1855
/var/folders/_t/3n28601j4f36k4h8t71c5mvr0000gn/T//cc34JHLi.s:885    .progmem.data:00000162 __c.1858
/var/folders/_t/3n28601j4f36k4h8t71c5mvr0000gn/T//cc34JHLi.s:889    .progmem.data:00000172 __c.1861
/var/folders/_t/3n28601j4f36k4h8t71c5mvr0000gn/T//cc34JHLi.s:893    .progmem.data:00000182 __c.1864
/var/folders/_t/3n28601j4f36k4h8t71c5mvr0000gn/T//cc34JHLi.s:897    .progmem.data:00000195 __c.1867
/var/folders/_t/3n28601j4f36k4h8t71c5mvr0000gn/T//cc34JHLi.s:901    .progmem.data:000001a7 __c.1870
/var/folders/_t/3n28601j4f36k4h8t71c5mvr0000gn/T//cc34JHLi.s:905    .progmem.data:000001bc __c.1873
/var/folders/_t/3n28601j4f36k4h8t71c5mvr0000gn/T//cc34JHLi.s:909    .progmem.data:000001cf __c.1876
/var/folders/_t/3n28601j4f36k4h8t71c5mvr0000gn/T//cc34JHLi.s:913    .progmem.data:000001e1 __c.1879
/var/folders/_t/3n28601j4f36k4h8t71c5mvr0000gn/T//cc34JHLi.s:917    .progmem.data:000001e8 __c.1881
                            *COM*:00000040 fb
                            *COM*:00000040 cube

UNDEFINED SYMBOLS
__do_copy_data
__do_clear_bss
fill
send_debug_info
effect_rain
sendvoxels_rand_z
effect_random_filler
effect_z_updown
effect_blinky2
effect_box_shrink_grow
effect_box_woopwoop
effect_planboing
effect_telcstairs
effect_axis_updown_randsuspend
effect_loadbar
rand
__divmodhi4
setvoxel
gol_play
effect_boxside_randsend_parallel
delay_ms
effect_pathspiral
effect_path_bitmap
effect_path_text
effect_rand_patharound
effect_smileyspin
effect_random_sparkle
effect_wormsqueeze
boingboing
effect_stringfly2
